ccopy_reg
_reconstructor
p1
(cCandidate
Candidate
p2
c__builtin__
object
p3
NtRp4
(dp5
S'racePref'
p6
(dp7
S'Hispanic'
p8
F0.34999999999999998
sS'White'
p9
F0.20000000000000001
sS'Other'
p10
F0.20000000000000001
sS'African American'
p11
F0.34999999999999998
sS'Asian'
p12
F0.10000000000000001
ssS'myID'
p13
I1
sS'name'
p14
S'Hillary'
p15
sS'spectrumValue'
p16
F0.40000000000000002
sb.