ccopy_reg
_reconstructor
p1
(cRegion
Region
p2
c__builtin__
object
p3
NtRp4
(dp5
S'raceBreakdown'
p6
(lp7
F0.29999999999999999
aF0.29999999999999999
aF0.20000000000000001
aF0.10000000000000001
aF0.10000000000000001
asS'PersonProbStdDev'
p8
F0.10000000000000001
sS'PersonProbAvg'
p9
F0.69999999999999996
sS'AgeStdDev'
p10
I7
sS'name'
p11
S'Region_2'
p12
sS'AgeAvg'
p13
I40
sS'phoneProbStdDev'
p14
F0.10000000000000001
sS'VotingAvg'
p15
F0.5
sS'candidates'
p16
(lp17
g1
(cCandidate
Candidate
p18
g3
NtRp19
(dp20
S'racePref'
p21
(dp22
S'Hispanic'
p23
F0.01
sS'White'
p24
F0.5
sS'Other'
p25
F0.20000000000000001
sS'African American'
p26
F0.01
sS'Asian'
p27
F0.10000000000000001
ssS'myID'
p28
I0
sg11
S'Trump'
p29
sS'spectrumValue'
p30
F0.69999999999999996
sbag1
(g18
g3
NtRp31
(dp32
g21
(dp33
g23
F0.5
sg24
F0.20000000000000001
sg25
F0.20000000000000001
sg26
F0.5
sg27
F0.10000000000000001
ssg28
I1
sg11
S'Hillary'
p34
sg30
F0.40000000000000002
sbag1
(g18
g3
NtRp35
(dp36
g21
(dp37
g23
F0.59999999999999998
sg24
F0.59999999999999998
sg25
F0.20000000000000001
sg26
F0.10000000000000001
sg27
F0.10000000000000001
ssg28
I2
sg11
S'Cruz'
p38
sg30
F0.80000000000000004
sbag1
(g18
g3
NtRp39
(dp40
g21
(dp41
g23
F0.5
sg24
F0.40000000000000002
sg25
F0.20000000000000001
sg26
F0.20000000000000001
sg27
F0.29999999999999999
ssg28
I3
sg11
S'Kasich'
p42
sg30
F0.55000000000000004
sbag1
(g18
g3
NtRp43
(dp44
g21
(dp45
g23
F0.29999999999999999
sg24
F0.69999999999999996
sg25
F0.29999999999999999
sg26
F0.20000000000000001
sg27
F0.69999999999999996
ssg28
I4
sg11
S'Sanders'
p46
sg30
F0.20000000000000001
sbasS'VotingStdDev'
p47
F0.10000000000000001
sS'ImmigrantProb'
p48
F0.20000000000000001
sS'phoneProbAvg'
p49
F0.5
sS'VotingPreference'
p50
g1
(cVotingProfile
VotingProfile
p51
g3
NtRp52
(dp53
S'immigrantPref'
p54
(lp55
F0.050000000000000003
aF0.40000000000000002
aF0.40000000000000002
aF0.20000000000000001
aF0.20000000000000001
asS'votingPrefStdDev'
p56
(lp57
F0.10000000000000001
aF0.10000000000000001
aF0.10000000000000001
aF0.10000000000000001
aF0.20000000000000001
asS'spectrumStdDev'
p58
F0.14999999999999999
sg16
g17
sS'immigrantProb'
p59
F0.20000000000000001
sS'votingPrefAvg'
p60
(lp61
F0.29999999999999999
aF0.40000000000000002
aF0.40000000000000002
aF0.20000000000000001
aF0.59999999999999998
asS'spectrumAvg'
p62
F0.40000000000000002
sbsS'population'
p63
(lp64
sb.