ccopy_reg
_reconstructor
p1
(cCandidate
Candidate
p2
c__builtin__
object
p3
NtRp4
(dp5
S'racePref'
p6
(dp7
S'Hispanic'
p8
F0.01
sS'White'
p9
F0.29999999999999999
sS'Other'
p10
F0.20000000000000001
sS'African American'
p11
F0.01
sS'Asian'
p12
F0.10000000000000001
ssS'myID'
p13
I0
sS'name'
p14
S'Trump'
p15
sS'spectrumValue'
p16
F0.69999999999999996
sb.